Certificate:
    Data:
        Version: 3 (0x2)
        Serial Number: 5 (0x5)
        Signature Algorithm: sha256WithRSAEncryption
        Issuer: C=SE, ST=Stockholm, L=Stockholm, O=Evil Scientist, OU=networking, CN=obtain.life/emailAddress=evil@scientist.cloud
        Validity
            Not Before: Dec 17 11:41:45 2019 GMT
            Not After : Dec 16 11:41:45 2020 GMT
        Subject: C=SE, ST=Stockholm, O=Evil Scientist, OU=networking, CN=obtain.life/emailAddress=evil@scientist.cloud
        Subject Public Key Info:
            Public Key Algorithm: rsaEncryption
                RSA Public-Key: (4096 bit)
                Modulus:
                    00:aa:f6:62:1e:b2:e2:33:56:0e:e4:f5:47:7c:f6:
                    93:0b:0e:d8:8e:5a:1f:31:4f:f2:a3:99:f9:02:30:
                    fe:e2:fa:5f:ca:bc:19:6a:9a:ae:b9:d3:52:17:30:
                    9c:f4:64:bb:84:42:31:1e:98:ac:73:e8:2e:19:28:
                    0f:eb:ff:07:6c:29:ac:ea:d2:47:b3:9e:98:d7:65:
                    15:ad:fd:13:1a:4e:88:76:a4:cc:e7:27:4f:93:18:
                    53:88:e2:f7:70:b2:ac:d2:d5:0f:e6:4c:e0:ad:82:
                    a5:9f:3a:41:96:81:9c:a9:2e:d1:cd:49:52:8c:75:
                    a9:fe:85:71:57:5a:e1:7f:38:e1:7a:9d:d6:84:9a:
                    00:b8:6c:3e:57:07:7c:9f:f2:35:b3:d8:02:e3:aa:
                    75:19:a7:ea:85:2d:5b:64:00:84:8f:4c:68:b0:44:
                    5a:07:ff:48:bd:92:11:30:9c:a8:d1:a0:23:1e:9e:
                    a9:01:b3:26:01:33:a8:c0:36:2e:11:e7:63:64:bc:
                    85:90:2e:d3:1b:a8:c5:0a:d5:2f:2f:9a:20:01:28:
                    95:58:ad:27:28:55:c6:8d:58:3d:d7:2c:2b:46:45:
                    d0:43:f9:d4:59:70:6c:39:8f:ce:36:1f:36:34:52:
                    e5:b4:00:f4:ec:d2:85:0e:07:10:0b:ca:28:64:aa:
                    a8:68:ce:b7:01:79:7a:e5:a7:b7:15:97:21:06:f3:
                    66:84:ae:54:24:4b:9a:d0:5b:f0:c0:f0:5b:13:53:
                    94:da:8e:96:7a:cf:96:84:f8:13:23:bb:f4:ca:55:
                    e2:41:52:fe:64:e6:4c:e7:f7:90:3e:10:6b:9f:00:
                    f3:d0:a0:5f:23:c9:4b:54:84:57:09:5f:57:1b:fc:
                    e3:cb:84:f8:98:24:43:d8:4c:8a:4c:05:7a:14:8f:
                    09:d7:0c:db:93:e5:97:78:a6:8f:99:9a:d3:74:53:
                    0b:9a:65:ad:d7:c5:ce:41:3c:e4:a9:2a:bb:81:25:
                    f4:4c:ec:bc:17:90:dc:19:92:5a:55:de:17:b8:65:
                    cb:31:97:b8:47:f8:4e:d5:49:96:ba:67:c8:36:d3:
                    ce:af:bd:3f:71:c4:f4:b8:92:b8:b2:61:aa:d9:bd:
                    31:d1:ac:91:8c:cd:de:ee:9e:82:dc:a9:75:4d:c7:
                    70:86:ec:c9:6d:61:b7:47:97:d8:16:2f:1b:57:cd:
                    f4:5b:fb:26:c9:4c:ef:63:e6:75:c5:cd:d9:2a:a9:
                    f4:9e:f0:6e:d7:5e:58:52:da:3b:32:c2:94:96:da:
                    d5:07:60:23:e3:c7:00:68:fa:6d:c1:8b:51:6e:10:
                    2b:b1:64:21:76:a3:e1:e8:01:c9:c4:d0:6f:fb:fd:
                    f9:26:2f
                Exponent: 65537 (0x10001)
        X509v3 extensions:
            X509v3 Basic Constraints: 
                CA:FALSE
            Netscape Comment: 
                OpenSSL Generated Certificate
            X509v3 Subject Key Identifier: 
                18:C6:D2:9E:FF:90:49:25:69:05:B5:D7:17:59:17:36:8D:C3:1B:29
            X509v3 Authority Key Identifier: 
                keyid:1C:D9:74:F5:98:9C:F8:AA:A8:3C:90:6B:60:28:32:DC:E3:19:74:3F

            X509v3 Extended Key Usage: 
                TLS Web Client Authentication
            X509v3 Key Usage: 
                Digital Signature
    Signature Algorithm: sha256WithRSAEncryption
         67:02:a4:2a:c4:04:52:61:0c:a3:eb:43:31:4b:07:26:6f:b8:
         05:3d:5c:7d:1d:7a:68:4f:41:7f:b7:23:04:a3:09:2c:df:b9:
         10:90:26:11:7b:32:8d:b1:ca:5b:3d:be:ef:0b:b7:33:39:a8:
         d2:8b:f5:e1:4e:2e:de:1f:05:db:92:6a:a8:89:7d:b5:c7:f8:
         c7:b3:4d:72:55:ac:b0:a1:d3:6f:9c:c6:18:af:fc:13:92:7a:
         fd:82:a0:93:a4:af:d0:57:d2:fa:82:b9:fc:af:6b:ca:b5:09:
         6a:09:1a:6e:54:6c:03:cb:99:e9:9c:8d:dd:b8:10:70:10:36:
         c8:46:a1:4c:72:34:4f:97:9b:94:63:a4:78:a3:ef:f6:24:92:
         25:71:ba:3d:3f:b3:ae:ff:79:c1:e1:22:91:39:49:9d:fb:07:
         59:a7:c5:d6:37:af:37:70:f0:01:f7:e7:bf:b9:43:e6:8e:a9:
         61:d3:84:be:08:44:3a:91:85:71:5b:50:b4:24:5a:fe:f8:04:
         3f:6f:68:75:49:7b:7a:36:e7:f1:e2:16:7b:05:63:9b:de:78:
         2a:37:ab:10:99:c3:9f:0b:f4:d5:63:2b:86:1b:8c:3a:80:65:
         7a:89:4d:66:77:7d:26:cd:49:8b:78:92:90:1f:6a:c4:1e:ab:
         17:eb:da:ad:96:58:f4:08:c2:63:eb:14:ce:23:ee:06:4c:bf:
         8e:7e:49:20:9f:d2:5c:95:4c:ed:c5:af:0c:9c:9d:47:ac:57:
         09:21:b9:ed:5f:07:99:d9:11:55:b4:b2:3c:00:c2:36:1b:35:
         80:53:a2:ef:0c:ca:f2:df:49:c0:8c:a2:9f:77:ca:d5:12:7c:
         87:8b:9f:09:26:90:ab:b7:a9:d7:93:76:54:9f:14:a1:96:3a:
         53:0f:d3:97:6d:1c:80:1d:d9:9f:80:48:59:5b:00:d9:82:03:
         f4:3d:4a:ba:50:a6:87:3d:91:f0:bc:32:2b:2a:e4:3b:a1:ed:
         95:99:12:ee:9b:bc:ac:88:4d:f5:bf:f0:85:ae:3f:e5:24:7b:
         ec:d0:5c:8b:b9:a0:ec:0a:43:3c:b3:1c:2e:7c:13:48:3d:7a:
         02:4d:3a:2f:a1:a7:4d:ac:aa:11:65:03:55:3c:62:79:43:76:
         83:65:f4:26:27:52:52:e4:84:49:68:ff:d1:aa:03:d9:48:6c:
         9d:2d:98:d6:95:04:1b:b2:5d:06:dc:96:93:d4:53:d4:00:80:
         cb:29:41:7c:3c:48:d6:5e:51:b1:aa:e3:bc:a4:a1:17:1f:0f:
         bf:d1:98:1c:43:a7:fe:14:d8:d8:6e:99:19:c8:c4:b1:a5:13:
         58:4b:f2:c4:43:28:e6:69
-----BEGIN CERTIFICATE-----
MIIGRDCCBCygAwIBAgIBBTANBgkqhkiG9w0BAQsFADCBnjELMAkGA1UEBhMCU0Ux
EjAQBgNVBAgMCVN0b2NraG9sbTESMBAGA1UEBwwJU3RvY2tob2xtMRcwFQYDVQQK
DA5FdmlsIFNjaWVudGlzdDETMBEGA1UECwwKbmV0d29ya2luZzEUMBIGA1UEAwwL
b2J0YWluLmxpZmUxIzAhBgkqhkiG9w0BCQEWFGV2aWxAc2NpZW50aXN0LmNsb3Vk
MB4XDTE5MTIxNzExNDE0NVoXDTIwMTIxNjExNDE0NVowgYoxCzAJBgNVBAYTAlNF
MRIwEAYDVQQIDAlTdG9ja2hvbG0xFzAVBgNVBAoMDkV2aWwgU2NpZW50aXN0MRMw
EQYDVQQLDApuZXR3b3JraW5nMRQwEgYDVQQDDAtvYnRhaW4ubGlmZTEjMCEGCSqG
SIb3DQEJARYUZXZpbEBzY2llbnRpc3QuY2xvdWQwggIiMA0GCSqGSIb3DQEBAQUA
A4ICDwAwggIKAoICAQCq9mIesuIzVg7k9Ud89pMLDtiOWh8xT/KjmfkCMP7i+l/K
vBlqmq6501IXMJz0ZLuEQjEemKxz6C4ZKA/r/wdsKazq0keznpjXZRWt/RMaToh2
pMznJ0+TGFOI4vdwsqzS1Q/mTOCtgqWfOkGWgZypLtHNSVKMdan+hXFXWuF/OOF6
ndaEmgC4bD5XB3yf8jWz2ALjqnUZp+qFLVtkAISPTGiwRFoH/0i9khEwnKjRoCMe
nqkBsyYBM6jANi4R52NkvIWQLtMbqMUK1S8vmiABKJVYrScoVcaNWD3XLCtGRdBD
+dRZcGw5j842HzY0UuW0APTs0oUOBxALyihkqqhozrcBeXrlp7cVlyEG82aErlQk
S5rQW/DA8FsTU5TajpZ6z5aE+BMju/TKVeJBUv5k5kzn95A+EGufAPPQoF8jyUtU
hFcJX1cb/OPLhPiYJEPYTIpMBXoUjwnXDNuT5Zd4po+ZmtN0UwuaZa3Xxc5BPOSp
KruBJfRM7LwXkNwZklpV3he4Zcsxl7hH+E7VSZa6Z8g2086vvT9xxPS4kriyYarZ
vTHRrJGMzd7unoLcqXVNx3CG7MltYbdHl9gWLxtXzfRb+ybJTO9j5nXFzdkqqfSe
8G7XXlhS2jsywpSW2tUHYCPjxwBo+m3Bi1FuECuxZCF2o+HoAcnE0G/7/fkmLwID
AQABo4GeMIGbMAkGA1UdEwQCMAAwLAYJYIZIAYb4QgENBB8WHU9wZW5TU0wgR2Vu
ZXJhdGVkIENlcnRpZmljYXRlMB0GA1UdDgQWBBQYxtKe/5BJJWkFtdcXWRc2jcMb
KTAfBgNVHSMEGDAWgBQc2XT1mJz4qqg8kGtgKDLc4xl0PzATBgNVHSUEDDAKBggr
BgEFBQcDAjALBgNVHQ8EBAMCB4AwDQYJKoZIhvcNAQELBQADggIBAGcCpCrEBFJh
DKPrQzFLByZvuAU9XH0demhPQX+3IwSjCSzfuRCQJhF7Mo2xyls9vu8LtzM5qNKL
9eFOLt4fBduSaqiJfbXH+MezTXJVrLCh02+cxhiv/BOSev2CoJOkr9BX0vqCufyv
a8q1CWoJGm5UbAPLmemcjd24EHAQNshGoUxyNE+Xm5RjpHij7/YkkiVxuj0/s67/
ecHhIpE5SZ37B1mnxdY3rzdw8AH357+5Q+aOqWHThL4IRDqRhXFbULQkWv74BD9v
aHVJe3o25/HiFnsFY5veeCo3qxCZw58L9NVjK4YbjDqAZXqJTWZ3fSbNSYt4kpAf
asQeqxfr2q2WWPQIwmPrFM4j7gZMv45+SSCf0lyVTO3FrwycnUesVwkhue1fB5nZ
EVW0sjwAwjYbNYBTou8MyvLfScCMop93ytUSfIeLnwkmkKu3qdeTdlSfFKGWOlMP
05dtHIAd2Z+ASFlbANmCA/Q9SrpQpoc9kfC8Misq5Duh7ZWZEu6bvKyITfW/8IWu
P+Uke+zQXIu5oOwKQzyzHC58E0g9egJNOi+hp02sqhFlA1U8YnlDdoNl9CYnUlLk
hElo/9GqA9lIbJ0tmNaVBBuyXQbclpPUU9QAgMspQXw8SNZeUbGq47ykoRcfD7/R
mBxDp/4U2NhumRnIxLGlE1hL8sRDKOZp
-----END CERTIFICATE-----
